ARM GAS  C:\Users\DEFAUL~1.DES\AppData\Local\Temp\ccVTiUGl.s 			page 1


   1              		.syntax unified
   2              		.cpu cortex-m0
   3              		.fpu softvfp
   4              		.eabi_attribute 20, 1
   5              		.eabi_attribute 21, 1
   6              		.eabi_attribute 23, 3
   7              		.eabi_attribute 24, 1
   8              		.eabi_attribute 25, 1
   9              		.eabi_attribute 26, 1
  10              		.eabi_attribute 30, 1
  11              		.eabi_attribute 34, 0
  12              		.eabi_attribute 18, 4
  13              		.thumb
  14              		.syntax unified
  15              		.file	"main.c"
  16              		.text
  17              	.Ltext0:
  18              		.cfi_sections	.debug_frame
  19              		.section	.text.initMotor,"ax",%progbits
  20              		.align	2
  21              		.global	initMotor
  22              		.code	16
  23              		.thumb_func
  24              		.type	initMotor, %function
  25              	initMotor:
  26              	.LFB36:
  27              		.file 1 "main.c"
   1:main.c        **** /* ========================================
   2:main.c        ****  *
   3:main.c        ****  * Copyright YOUR COMPANY, THE YEAR
   4:main.c        ****  * All Rights Reserved
   5:main.c        ****  * UNPUBLISHED, LICENSED SOFTWARE.
   6:main.c        ****  *
   7:main.c        ****  * CONFIDENTIAL AND PROPRIETARY INFORMATION
   8:main.c        ****  * WHICH IS THE PROPERTY OF your company.
   9:main.c        ****  *
  10:main.c        ****  * ========================================
  11:main.c        **** */
  12:main.c        **** #include "top.h"
  13:main.c        **** 
  14:main.c        **** //local function prototypes
  15:main.c        **** void initialize(void);
  16:main.c        **** void initDataStructs(void);
  17:main.c        **** void initTCBs(void);
  18:main.c        **** void initMotor(motor *currMotorPtr, int motorID);
  19:main.c        **** 
  20:main.c        **** //external function prototypes
  21:main.c        **** //void addTask(tcb *newTask);
  22:main.c        **** //void executeTask(tcb *tcbPtr);
  23:main.c        **** void readPot(void* currDataPtr);
  24:main.c        **** void display(void *dataPointer);
  25:main.c        **** 
  26:main.c        **** //void initMotor(motor *currMotorPtr, int motorID);
  27:main.c        **** //void readPot();
  28:main.c        **** 
  29:main.c        **** //declare motor variables from motor.h
  30:main.c        **** motor motor0;
ARM GAS  C:\Users\DEFAUL~1.DES\AppData\Local\Temp\ccVTiUGl.s 			page 2


  31:main.c        **** 
  32:main.c        **** //declare global variables
  33:main.c        **** tcb *firstTCBPtr = 0;
  34:main.c        **** tcb *lastTCBPtr = 0;
  35:main.c        **** 
  36:main.c        **** //data structs
  37:main.c        **** potData myPotData;
  38:main.c        **** displayData myDisplayData;
  39:main.c        **** 
  40:main.c        **** //tcb structs
  41:main.c        **** tcb potTCB;
  42:main.c        **** tcb displayTCB;
  43:main.c        **** 
  44:main.c        **** /*
  45:main.c        **** CY_ISR(isrLim0)
  46:main.c        **** {
  47:main.c        ****     LCD_Position(0,0);
  48:main.c        ****     LCD_PrintString("Pot interrupt");
  49:main.c        ****     addTask(&potTCB);
  50:main.c        **** }
  51:main.c        **** 
  52:main.c        **** CY_ISR(isrLim1)
  53:main.c        **** {
  54:main.c        ****     LCD_Position(0, 0);
  55:main.c        ****     LCD_PrintString("Display interrupt");
  56:main.c        ****     addTask(&displayTCB);   
  57:main.c        **** }
  58:main.c        **** */
  59:main.c        **** int main(void)
  60:main.c        **** {
  61:main.c        ****     CyGlobalIntEnable; /* Enable global interrupts. */
  62:main.c        ****     
  63:main.c        ****     initialize();
  64:main.c        ****     
  65:main.c        ****     int count = 0; //For testing/ call simulation purposes.
  66:main.c        ****     addTask(&displayTCB);
  67:main.c        ****     for(;;)
  68:main.c        ****     {
  69:main.c        ****         tcb *myFirstTCBPtr = firstTCBPtr;
  70:main.c        ****         addTask(&displayTCB);
  71:main.c        ****         myFirstTCBPtr = firstTCBPtr;
  72:main.c        **** //        if(0 == count % 6)
  73:main.c        **** //            addtask((void*) &pottcb);
  74:main.c        **** //        if(0 == count % 17)
  75:main.c        **** //            addtask((void*) &displaytcb);
  76:main.c        ****         //readPot(&motor0);
  77:main.c        ****         //CyDelay(500);
  78:main.c        ****         //LCD_Position(1, 0);
  79:main.c        ****         //LCD_PrintString("Reading: ");
  80:main.c        ****         //readPot(&motor0);
  81:main.c        ****         //LCD_PrintDecUint16(motor0.posRaw);
  82:main.c        ****         //CyDelay(500);
  83:main.c        ****         //addTask(&
  84:main.c        ****         //if(NULL != firstTCBPtr)
  85:main.c        ****           //  executeTask(firstTCBPtr);
  86:main.c        ****         //addTask(&displayTCB);    
  87:main.c        ****         executeTask(firstTCBPtr);
ARM GAS  C:\Users\DEFAUL~1.DES\AppData\Local\Temp\ccVTiUGl.s 			page 3


  88:main.c        ****         myFirstTCBPtr = firstTCBPtr;
  89:main.c        ****         LCD_PrintString("Hi");
  90:main.c        ****     }
  91:main.c        **** }
  92:main.c        **** 
  93:main.c        **** 
  94:main.c        **** 
  95:main.c        **** void initialize()
  96:main.c        **** {
  97:main.c        ****     LCD_Start();
  98:main.c        ****     ADC_Start();
  99:main.c        ****     initMotor(&motor0, 0);
 100:main.c        ****     //LCD_PrintString("Hello World");
 101:main.c        ****     initDataStructs();
 102:main.c        ****     initTCBs();
 103:main.c        ****     addTask(&potTCB);
 104:main.c        **** }
 105:main.c        **** 
 106:main.c        **** void initMotor(motor *currMotorPtr, int motorID)
 107:main.c        **** {
  28              		.loc 1 107 0
  29              		.cfi_startproc
  30              		@ args = 0, pretend = 0, frame = 0
  31              		@ frame_needed = 0, uses_anonymous_args = 0
  32              		@ link register save eliminated.
  33              	.LVL0:
 108:main.c        ****     currMotorPtr->motorID = motorID;
  34              		.loc 1 108 0
  35 0000 0160     		str	r1, [r0]
 109:main.c        ****     //readPot(currMotorPtr);
 110:main.c        **** }
  36              		.loc 1 110 0
  37              		@ sp needed
  38 0002 7047     		bx	lr
  39              		.cfi_endproc
  40              	.LFE36:
  41              		.size	initMotor, .-initMotor
  42              		.section	.text.initDataStructs,"ax",%progbits
  43              		.align	2
  44              		.global	initDataStructs
  45              		.code	16
  46              		.thumb_func
  47              		.type	initDataStructs, %function
  48              	initDataStructs:
  49              	.LFB37:
 111:main.c        **** 
 112:main.c        **** void initDataStructs(void)
 113:main.c        **** {
  50              		.loc 1 113 0
  51              		.cfi_startproc
  52              		@ args = 0, pretend = 0, frame = 0
  53              		@ frame_needed = 0, uses_anonymous_args = 0
  54              		@ link register save eliminated.
  55              	.LVL1:
 114:main.c        ****     int i = 0;
 115:main.c        ****     for(i = 0; i < NUM_MOTORS; i++)
  56              		.loc 1 115 0
ARM GAS  C:\Users\DEFAUL~1.DES\AppData\Local\Temp\ccVTiUGl.s 			page 4


  57 0000 0023     		movs	r3, #0
  58 0002 05E0     		b	.L3
  59              	.LVL2:
  60              	.L4:
 116:main.c        ****     {
 117:main.c        ****         myDisplayData.potRawPtr[i] = &(myPotData.potRaw[i]);
  61              		.loc 1 117 0 discriminator 3
  62 0004 9900     		lsls	r1, r3, #2
  63 0006 044A     		ldr	r2, .L5
  64 0008 8A18     		adds	r2, r1, r2
  65 000a 0448     		ldr	r0, .L5+4
  66 000c 0A50     		str	r2, [r1, r0]
 115:main.c        ****     {
  67              		.loc 1 115 0 discriminator 3
  68 000e 0133     		adds	r3, r3, #1
  69              	.LVL3:
  70              	.L3:
 115:main.c        ****     {
  71              		.loc 1 115 0 is_stmt 0 discriminator 1
  72 0010 022B     		cmp	r3, #2
  73 0012 F7DD     		ble	.L4
 118:main.c        ****     }
 119:main.c        **** }
  74              		.loc 1 119 0 is_stmt 1
  75              		@ sp needed
  76 0014 7047     		bx	lr
  77              	.L6:
  78 0016 C046     		.align	2
  79              	.L5:
  80 0018 00000000 		.word	myPotData
  81 001c 00000000 		.word	myDisplayData
  82              		.cfi_endproc
  83              	.LFE37:
  84              		.size	initDataStructs, .-initDataStructs
  85              		.section	.text.initTCBs,"ax",%progbits
  86              		.align	2
  87              		.global	initTCBs
  88              		.code	16
  89              		.thumb_func
  90              		.type	initTCBs, %function
  91              	initTCBs:
  92              	.LFB38:
 120:main.c        **** 
 121:main.c        **** void initTCBs(void)
 122:main.c        **** {
  93              		.loc 1 122 0
  94              		.cfi_startproc
  95              		@ args = 0, pretend = 0, frame = 0
  96              		@ frame_needed = 0, uses_anonymous_args = 0
  97 0000 10B5     		push	{r4, lr}
  98              		.cfi_def_cfa_offset 8
  99              		.cfi_offset 4, -8
 100              		.cfi_offset 14, -4
 123:main.c        ****     LCD_PrintString("TCB Init");
 101              		.loc 1 123 0
 102 0002 0748     		ldr	r0, .L8
 103 0004 FFF7FEFF 		bl	LCD_PrintString
ARM GAS  C:\Users\DEFAUL~1.DES\AppData\Local\Temp\ccVTiUGl.s 			page 5


 104              	.LVL4:
 124:main.c        ****     potTCB.currTask = readPot;
 105              		.loc 1 124 0
 106 0008 064B     		ldr	r3, .L8+4
 107 000a 074A     		ldr	r2, .L8+8
 108 000c 1A60     		str	r2, [r3]
 125:main.c        ****     potTCB.dataPtr  = &myPotData;
 109              		.loc 1 125 0
 110 000e 074A     		ldr	r2, .L8+12
 111 0010 5A60     		str	r2, [r3, #4]
 126:main.c        ****     displayTCB.currTask = display;
 112              		.loc 1 126 0
 113 0012 074B     		ldr	r3, .L8+16
 114 0014 074A     		ldr	r2, .L8+20
 115 0016 1A60     		str	r2, [r3]
 127:main.c        ****     displayTCB.dataPtr = &myDisplayData;
 116              		.loc 1 127 0
 117 0018 074A     		ldr	r2, .L8+24
 118 001a 5A60     		str	r2, [r3, #4]
 128:main.c        **** }...
 119              		.loc 1 128 0
 120              		@ sp needed
 121 001c 10BD     		pop	{r4, pc}
 122              	.L9:
 123 001e C046     		.align	2
 124              	.L8:
 125 0020 00000000 		.word	.LC2
 126 0024 00000000 		.word	potTCB
 127 0028 00000000 		.word	readPot
 128 002c 00000000 		.word	myPotData
 129 0030 00000000 		.word	displayTCB
 130 0034 00000000 		.word	display
 131 0038 00000000 		.word	myDisplayData
 132              		.cfi_endproc
 133              	.LFE38:
 134              		.size	initTCBs, .-initTCBs
 135              		.section	.text.initialize,"ax",%progbits
 136              		.align	2
 137              		.global	initialize
 138              		.code	16
 139              		.thumb_func
 140              		.type	initialize, %function
 141              	initialize:
 142              	.LFB35:
  96:main.c        **** {
 143              		.loc 1 96 0
 144              		.cfi_startproc
 145              		@ args = 0, pretend = 0, frame = 0
 146              		@ frame_needed = 0, uses_anonymous_args = 0
 147 0000 10B5     		push	{r4, lr}
 148              		.cfi_def_cfa_offset 8
 149              		.cfi_offset 4, -8
 150              		.cfi_offset 14, -4
  97:main.c        ****     LCD_Start();
 151              		.loc 1 97 0
 152 0002 FFF7FEFF 		bl	LCD_Start
 153              	.LVL5:
ARM GAS  C:\Users\DEFAUL~1.DES\AppData\Local\Temp\ccVTiUGl.s 			page 6


  98:main.c        ****     ADC_Start();
 154              		.loc 1 98 0
 155 0006 FFF7FEFF 		bl	ADC_Start
 156              	.LVL6:
  99:main.c        ****     initMotor(&motor0, 0);
 157              		.loc 1 99 0
 158 000a 0021     		movs	r1, #0
 159 000c 0548     		ldr	r0, .L11
 160 000e FFF7FEFF 		bl	initMotor
 161              	.LVL7:
 101:main.c        ****     initDataStructs();
 162              		.loc 1 101 0
 163 0012 FFF7FEFF 		bl	initDataStructs
 164              	.LVL8:
 102:main.c        ****     initTCBs();
 165              		.loc 1 102 0
 166 0016 FFF7FEFF 		bl	initTCBs
 167              	.LVL9:
 103:main.c        ****     addTask(&potTCB);
 168              		.loc 1 103 0
 169 001a 0348     		ldr	r0, .L11+4
 170 001c FFF7FEFF 		bl	addTask
 171              	.LVL10:
 104:main.c        **** }
 172              		.loc 1 104 0
 173              		@ sp needed
 174 0020 10BD     		pop	{r4, pc}
 175              	.L12:
 176 0022 C046     		.align	2
 177              	.L11:
 178 0024 00000000 		.word	motor0
 179 0028 00000000 		.word	potTCB
 180              		.cfi_endproc
 181              	.LFE35:
 182              		.size	initialize, .-initialize
 183              		.section	.text.main,"ax",%progbits
 184              		.align	2
 185              		.global	main
 186              		.code	16
 187              		.thumb_func
 188              		.type	main, %function
 189              	main:
 190              	.LFB34:
  60:main.c        **** {
 191              		.loc 1 60 0
 192              		.cfi_startproc
 193              		@ args = 0, pretend = 0, frame = 0
 194              		@ frame_needed = 0, uses_anonymous_args = 0
 195 0000 10B5     		push	{r4, lr}
 196              		.cfi_def_cfa_offset 8
 197              		.cfi_offset 4, -8
 198              		.cfi_offset 14, -4
  61:main.c        ****     CyGlobalIntEnable; /* Enable global interrupts. */
 199              		.loc 1 61 0
 200              		.syntax divided
 201              	@ 61 "main.c" 1
 202 0002 62B6     		CPSIE   i
ARM GAS  C:\Users\DEFAUL~1.DES\AppData\Local\Temp\ccVTiUGl.s 			page 7


 203              	@ 0 "" 2
  63:main.c        ****     initialize();
 204              		.loc 1 63 0
 205              		.thumb
 206              		.syntax unified
 207 0004 FFF7FEFF 		bl	initialize
 208              	.LVL11:
  66:main.c        ****     addTask(&displayTCB);
 209              		.loc 1 66 0
 210 0008 0648     		ldr	r0, .L15
 211 000a FFF7FEFF 		bl	addTask
 212              	.LVL12:
 213              	.L14:
 214              	.LBB2:
  70:main.c        ****         addTask(&displayTCB);
 215              		.loc 1 70 0 discriminator 1
 216 000e 0548     		ldr	r0, .L15
 217 0010 FFF7FEFF 		bl	addTask
 218              	.LVL13:
  87:main.c        ****         executeTask(firstTCBPtr);
 219              		.loc 1 87 0 discriminator 1
 220 0014 044B     		ldr	r3, .L15+4
 221 0016 1868     		ldr	r0, [r3]
 222 0018 FFF7FEFF 		bl	executeTask
 223              	.LVL14:
  89:main.c        ****         LCD_PrintString("Hi");
 224              		.loc 1 89 0 discriminator 1
 225 001c 0348     		ldr	r0, .L15+8
 226 001e FFF7FEFF 		bl	LCD_PrintString
 227              	.LVL15:
 228 0022 F4E7     		b	.L14
 229              	.L16:
 230              		.align	2
 231              	.L15:
 232 0024 00000000 		.word	displayTCB
 233 0028 00000000 		.word	.LANCHOR0
 234 002c 0C000000 		.word	.LC14
 235              	.LBE2:
 236              		.cfi_endproc
 237              	.LFE34:
 238              		.size	main, .-main
 239              		.comm	displayTCB,12,4
 240              		.comm	potTCB,12,4
 241              		.comm	myDisplayData,12,4
 242              		.comm	myPotData,12,4
 243              		.global	lastTCBPtr
 244              		.global	firstTCBPtr
 245              		.comm	motor0,24,4
 246              		.section	.rodata.str1.4,"aMS",%progbits,1
 247              		.align	2
 248              	.LC2:
 249 0000 54434220 		.ascii	"TCB Init\000"
 249      496E6974 
 249      00
 250 0009 000000   		.space	3
 251              	.LC14:
 252 000c 486900   		.ascii	"Hi\000"
ARM GAS  C:\Users\DEFAUL~1.DES\AppData\Local\Temp\ccVTiUGl.s 			page 8


 253              		.bss
 254              		.align	2
 255              		.set	.LANCHOR0,. + 0
 256              		.type	firstTCBPtr, %object
 257              		.size	firstTCBPtr, 4
 258              	firstTCBPtr:
 259 0000 00000000 		.space	4
 260              		.type	lastTCBPtr, %object
 261              		.size	lastTCBPtr, 4
 262              	lastTCBPtr:
 263 0004 00000000 		.space	4
 264              		.text
 265              	.Letext0:
 266              		.file 2 "motor.h"
 267              		.file 3 "tcb.h"
 268              		.file 4 "structs.h"
 269              		.file 5 "Generated_Source\\PSoC4/LCD.h"
 270              		.file 6 "Generated_Source\\PSoC4/ADC.h"
 271              		.file 7 "top.h"