ARM GAS  C:\Users\DEFAUL~1.DES\AppData\Local\Temp\ccrunRDc.s 			page 1


   1              		.syntax unified
   2              		.cpu cortex-m0
   3              		.fpu softvfp
   4              		.eabi_attribute 20, 1
   5              		.eabi_attribute 21, 1
   6              		.eabi_attribute 23, 3
   7              		.eabi_attribute 24, 1
   8              		.eabi_attribute 25, 1
   9              		.eabi_attribute 26, 1
  10              		.eabi_attribute 30, 1
  11              		.eabi_attribute 34, 0
  12              		.eabi_attribute 18, 4
  13              		.thumb
  14              		.syntax unified
  15              		.file	"pots.c"
  16              		.text
  17              	.Ltext0:
  18              		.cfi_sections	.debug_frame
  19              		.section	.text.readPot,"ax",%progbits
  20              		.align	2
  21              		.global	readPot
  22              		.code	16
  23              		.thumb_func
  24              		.type	readPot, %function
  25              	readPot:
  26              	.LFB34:
  27              		.file 1 "pots.c"
   1:pots.c        **** /* ========================================
   2:pots.c        ****  * pots.c
   3:pots.c        ****  * Dylan Tomberlin
   4:pots.c        ****  * Husky Robotics Team, 2017-2018
   5:pots.c        ****  * This file contains functions pertaining to the potentiometers
   6:pots.c        ****  * ========================================
   7:pots.c        **** */
   8:pots.c        **** #include "top.h"
   9:pots.c        **** 
  10:pots.c        **** #define VOLT_OVER_POT 5  //Total voltage applied over potentiometer poles
  11:pots.c        **** #define POT_OFFSET 0     //Tuning factor
  12:pots.c        **** #define NORMALIZE  32768 //=2^15, Normalize the raw input data to a scale of 0 to 1
  13:pots.c        **** 
  14:pots.c        **** //void readPot(motor *currMotorPtr){
  15:pots.c        **** //    int raw = ADC_GetResult16(currMotorPtr->motorID);
  16:pots.c        **** //    currMotorPtr->posRaw = raw;
  17:pots.c        **** //    //currMotorPtr->currPos = ((float) (raw - POT_OFFSET)) / NORMALIZE;
  18:pots.c        **** //}
  19:pots.c        **** 
  20:pots.c        **** void readPot(void *currDataPtr){
  28              		.loc 1 20 0
  29              		.cfi_startproc
  30              		@ args = 0, pretend = 0, frame = 0
  31              		@ frame_needed = 0, uses_anonymous_args = 0
  32              	.LVL0:
  33 0000 70B5     		push	{r4, r5, r6, lr}
  34              		.cfi_def_cfa_offset 16
  35              		.cfi_offset 4, -16
  36              		.cfi_offset 5, -12
  37              		.cfi_offset 6, -8
ARM GAS  C:\Users\DEFAUL~1.DES\AppData\Local\Temp\ccrunRDc.s 			page 2


  38              		.cfi_offset 14, -4
  39 0002 0500     		movs	r5, r0
  40              	.LVL1:
  21:pots.c        ****     //Cast generic Data struct pointer to potData struct pointer
  22:pots.c        ****     potData *potDataPtr = (potData*) currDataPtr;
  23:pots.c        ****     
  24:pots.c        ****     int i = 0;
  25:pots.c        ****     for(i = 0; i < NUM_MOTORS; i++)
  41              		.loc 1 25 0
  42 0004 0024     		movs	r4, #0
  43 0006 05E0     		b	.L2
  44              	.LVL2:
  45              	.L3:
  26:pots.c        ****     {
  27:pots.c        ****         potDataPtr->potRaw[i] = ADC_GetResult16(i);   
  46              		.loc 1 27 0 discriminator 3
  47 0008 2000     		movs	r0, r4
  48 000a FFF7FEFF 		bl	ADC_GetResult16
  49              	.LVL3:
  50 000e A300     		lsls	r3, r4, #2
  51 0010 5851     		str	r0, [r3, r5]
  25:pots.c        ****     {
  52              		.loc 1 25 0 discriminator 3
  53 0012 0134     		adds	r4, r4, #1
  54              	.LVL4:
  55              	.L2:
  25:pots.c        ****     {
  56              		.loc 1 25 0 is_stmt 0 discriminator 1
  57 0014 022C     		cmp	r4, #2
  58 0016 F7DD     		ble	.L3
  28:pots.c        ****     }
  29:pots.c        **** }...
  59              		.loc 1 29 0 is_stmt 1
  60              		@ sp needed
  61              	.LVL5:
  62              	.LVL6:
  63 0018 70BD     		pop	{r4, r5, r6, pc}
  64              		.cfi_endproc
  65              	.LFE34:
  66              		.size	readPot, .-readPot
  67 001a C046     		.text
  68              	.Letext0:
  69              		.file 2 "structs.h"
  70              		.file 3 "Generated_Source\\PSoC4/ADC.h"